; Function Attrs: mustprogress uwtable
define noundef ptr @_ZN6icu_7513Norm2AllModes14createInstanceEPNS_15Normalizer2ImplER10UErrorCode(ptr noundef %impl, ptr nocapture noundef nonnull align 4 dereferenceable(4) %errorCode) local_unnamed_addr #4 align 2 personality ptr @__gxx_personality_v0 {
entry:
  %0 = load i32, ptr %errorCode, align 4
  %cmp.i = icmp slt i32 %0, 1
  br i1 %cmp.i, label %if.end, label %if.then

if.then:                                          ; preds = %entry
  %isnull = icmp eq ptr %impl, null
  br i1 %isnull, label %return, label %delete.notnull

delete.notnull:                                   ; preds = %if.then
  %vtable = load ptr, ptr %impl, align 8
  %vfn = getelementptr inbounds i8, ptr %vtable, i64 8
  %1 = load ptr, ptr %vfn, align 8
  tail call void %1(ptr noundef nonnull align 8 dereferenceable(80) %impl) #13
  br label %return

if.end:                                           ; preds = %entry
  %call1 = tail call noundef ptr @_ZN6icu_757UMemorynwEm(i64 noundef 88) #13
  %new.isnull = icmp eq ptr %call1, null
  br i1 %new.isnull, label %if.then2, label %new.cont

new.cont:                                         ; preds = %if.end
  store ptr %impl, ptr %call1, align 8
  %comp.i = getelementptr inbounds i8, ptr %call1, i64 8
  %impl.i.i.i = getelementptr inbounds i8, ptr %call1, i64 16
  store ptr %impl, ptr %impl.i.i.i, align 8
  store ptr getelementptr inbounds ({ [24 x ptr] }, ptr @_ZTVN6icu_7518ComposeNormalizer2E, i64 0, i32 0, i64 2), ptr %comp.i, align 8
  %onlyContiguous.i.i = getelementptr inbounds i8, ptr %call1, i64 24
  store i8 0, ptr %onlyContiguous.i.i, align 8
  %decomp.i = getelementptr inbounds i8, ptr %call1, i64 32
  %impl.i.i5.i = getelementptr inbounds i8, ptr %call1, i64 40
  store ptr %impl, ptr %impl.i.i5.i, align 8
  store ptr getelementptr inbounds ({ [24 x ptr] }, ptr @_ZTVN6icu_7520DecomposeNormalizer2E, i64 0, i32 0, i64 2), ptr %decomp.i, align 8
  %fcd.i = getelementptr inbounds i8, ptr %call1, i64 48
  %impl.i.i6.i = getelementptr inbounds i8, ptr %call1, i64 56
  store ptr %impl, ptr %impl.i.i6.i, align 8
  store ptr getelementptr inbounds ({ [24 x ptr] }, ptr @_ZTVN6icu_7514FCDNormalizer2E, i64 0, i32 0, i64 2), ptr %fcd.i, align 8
  %fcc.i = getelementptr inbounds i8, ptr %call1, i64 64
  %impl.i.i7.i = getelementptr inbounds i8, ptr %call1, i64 72
  store ptr %impl, ptr %impl.i.i7.i, align 8
  store ptr getelementptr inbounds ({ [24 x ptr] }, ptr @_ZTVN6icu_7518ComposeNormalizer2E, i64 0, i32 0, i64 2), ptr %fcc.i, align 8
  %onlyContiguous.i8.i = getelementptr inbounds i8, ptr %call1, i64 80
  store i8 1, ptr %onlyContiguous.i8.i, align 8
  br label %return

if.then2:                                         ; preds = %if.end
  store i32 7, ptr %errorCode, align 4
  %isnull3 = icmp eq ptr %impl, null
  br i1 %isnull3, label %return, label %delete.notnull4

delete.notnull4:                                  ; preds = %if.then2
  %vtable5 = load ptr, ptr %impl, align 8
  %vfn6 = getelementptr inbounds i8, ptr %vtable5, i64 8
  %2 = load ptr, ptr %vfn6, align 8
  tail call void %2(ptr noundef nonnull align 8 dereferenceable(80) %impl) #13
  br label %return

return:                                           ; preds = %new.cont, %if.then2, %delete.notnull4, %if.then, %delete.notnull
  %retval.0 = phi ptr [ null, %delete.notnull ], [ null, %if.then ], [ null, %delete.notnull4 ], [ null, %if.then2 ], [ %call1, %new.cont ]
  ret ptr %retval.0
}